; Function Attrs: nofree nounwind uwtable
define noalias noundef ptr @getVecOfVecFairness(ptr noundef captures(none) %0) local_unnamed_addr #9 {
  %2 = alloca [100 x i8], align 16
  %calloc.i = tail call noalias noundef dereferenceable_or_null(16) ptr @calloc(i64 1, i64 16)
  call void @llvm.lifetime.start.p0(i64 100, ptr nonnull %2) #17
  br label %3

3:                                                ; preds = %3, %1
  %4 = call ptr @fgets(ptr noundef nonnull %2, i32 noundef 50, ptr noundef %0)
  %.not = icmp eq ptr %4, null
  br i1 %.not, label %5, label %3, !llvm.loop !71

5:                                                ; preds = %3
  call void @llvm.lifetime.end.p0(i64 100, ptr nonnull %2) #17
  ret ptr %calloc.i
}